TN:
SF:/home/tater/Technopark/Sem_1/C_Homeworks/book_catalog_lib/book.c
FN:5,print_book
FNDA:30,print_book
FNF:1
FNH:1
DA:5,30
DA:6,30
DA:7,30
DA:8,30
DA:9,30
DA:10,30
DA:11,30
DA:12,30
DA:13,30
DA:14,30
DA:15,30
DA:16,30
DA:17,30
DA:19,30
DA:20,20
DA:21,20
DA:23,10
DA:24,10
DA:25,10
DA:27,30
LF:20
LH:20
end_of_record
TN:
SF:/home/tater/Technopark/Sem_1/C_Homeworks/book_catalog_lib/book_catalog.c
FN:5,create_catalog
FN:85,delete_catalog
FN:115,print_catalog
FN:123,get_info_of_taken_books
FN:137,take_the_book
FNDA:33,take_the_book
FNDA:41,delete_catalog
FNDA:10,print_catalog
FNDA:45,create_catalog
FNDA:5,get_info_of_taken_books
FNF:5
FNH:5
DA:5,45
DA:6,45
DA:7,4
DA:9,41
DA:11,41
DA:12,41
DA:13,0
DA:16,41
DA:17,41
DA:18,41
DA:20,41
DA:21,41
DA:22,41
DA:23,41
DA:25,197
DA:26,156
DA:27,156
DA:28,156
DA:30,156
DA:31,156
DA:32,0
DA:34,156
DA:35,156
DA:39,156
DA:40,156
DA:41,156
DA:42,156
DA:43,156
DA:44,156
DA:45,156
DA:46,156
DA:47,156
DA:49,156
DA:50,156
DA:51,41
DA:53,156
DA:55,156
DA:56,156
DA:57,41
DA:59,156
DA:61,156
DA:62,156
DA:63,41
DA:65,156
DA:67,156
DA:68,156
DA:69,41
DA:71,156
DA:73,156
DA:74,115
DA:75,115
DA:78,41
DA:79,41
DA:80,0
DA:82,41
DA:85,41
DA:86,41
DA:87,0
DA:89,156
DA:90,115
DA:91,115
DA:93,115
DA:94,115
DA:96,115
DA:97,81
DA:98,47
DA:99,47
DA:100,47
DA:101,47
DA:103,47
DA:104,47
DA:108,34
DA:111,41
DA:112,41
DA:115,10
DA:116,10
DA:117,40
DA:118,30
DA:120,10
DA:121,10
DA:123,5
DA:124,5
DA:125,0
DA:128,5
DA:129,20
DA:130,15
DA:131,10
DA:132,10
DA:137,33
DA:138,33
DA:139,4
DA:142,29
DA:143,29
DA:144,0
DA:147,29
DA:148,29
DA:149,29
DA:150,29
DA:151,29
DA:153,29
DA:154,71
DA:155,42
DA:156,42
DA:157,8
DA:159,34
DA:160,34
DA:161,0
DA:163,34
DA:165,34
DA:167,34
DA:168,34
DA:169,0
DA:174,42
DA:175,34
DA:176,81
DA:177,47
DA:178,47
DA:179,0
DA:181,47
DA:183,47
DA:184,47
DA:185,0
DA:187,47
DA:189,47
DA:190,47
DA:191,8
DA:193,47
DA:194,47
DA:195,47
DA:199,29
DA:200,4
DA:202,25
DA:203,12
DA:205,13
LF:134
LH:124
end_of_record
TN:
SF:/home/tater/Technopark/Sem_1/C_Homeworks/book_catalog_lib/person.c
FN:5,print_person
FNDA:10,print_person
FNF:1
FNH:1
DA:5,10
DA:6,10
DA:7,25
DA:8,15
DA:9,15
DA:10,15
DA:11,15
DA:12,15
DA:13,15
DA:14,15
DA:16,10
LF:11
LH:11
end_of_record
TN:
SF:/home/tater/Technopark/Sem_1/C_Homeworks/book_catalog_lib/utilities.c
FN:9,input_char
FN:22,input_string
FN:61,input_int
FN:83,print_string
FNDA:5106,input_char
FNDA:100,print_string
FNDA:426,input_string
FNDA:439,input_int
FNF:4
FNH:4
DA:9,5106
DA:10,5106
DA:11,5106
DA:13,5106
DA:14,5106
DA:16,5106
DA:17,197
DA:19,4909
DA:22,426
DA:27,426
DA:28,426
DA:29,426
DA:30,3805
DA:31,3379
DA:32,1691
DA:33,1691
DA:34,1691
DA:35,0
DA:36,0
DA:38,0
DA:40,1691
DA:41,1691
DA:42,1351
DA:43,1351
DA:46,1691
DA:47,1691
DA:49,3379
DA:50,3379
DA:51,3379
DA:52,3379
DA:55,426
DA:56,0
DA:58,426
DA:61,439
DA:62,439
DA:63,439
DA:64,439
DA:65,1297
DA:66,862
DA:67,4
DA:68,4
DA:69,4
DA:71,4
DA:73,858
DA:74,858
DA:77,435
DA:78,0
DA:80,435
DA:83,100
DA:84,100
DA:86,975
DA:87,975
DA:88,975
DA:89,100
LF:54
LH:49
end_of_record
TN:
SF:/home/tater/Technopark/Sem_1/C_Homeworks/src/main.c
FN:9,main
FNDA:6,main
FNF:1
FNH:1
DA:9,6
DA:10,6
DA:11,6
DA:12,6
DA:13,6
DA:14,6
DA:16,6
DA:20,18
DA:22,12
DA:23,0
DA:24,0
DA:25,0
DA:26,0
DA:28,0
DA:29,0
DA:31,0
DA:32,0
DA:33,0
DA:35,6
DA:36,6
DA:37,6
DA:39,6
DA:40,6
DA:41,6
DA:43,0
DA:44,0
DA:45,0
DA:47,0
DA:48,0
DA:52,6
DA:55,6
DA:56,6
DA:57,18
DA:58,12
DA:59,12
DA:63,6
DA:64,6
DA:65,6
DA:67,0
DA:69,6
DA:70,0
DA:73,6
DA:74,6
DA:75,6
DA:76,6
DA:77,6
DA:80,6
DA:82,6
DA:83,6
DA:84,6
DA:86,0
DA:89,6
DA:90,0
DA:93,6
DA:94,6
DA:95,6
DA:96,6
DA:99,6
DA:101,6
DA:102,6
DA:103,6
LF:61
LH:43
end_of_record
TN:
SF:/home/tater/Technopark/Sem_1/C_Homeworks/unit_test/functionality_test.cpp
FN:11,_ZN32BAD_INPUT_null_ptr_creation_TestC2Ev
FN:11,_ZN32BAD_INPUT_null_ptr_creation_Test8TestBodyEv
FN:16,_ZN37BAD_INPUT_null_ptr_take_the_book_TestC2Ev
FN:16,_ZN37BAD_INPUT_null_ptr_take_the_book_Test8TestBodyEv
FN:21,_ZN42CORRECT_INPUT_create_catalog_function_Test8TestBodyEv
FN:21,_ZN42CORRECT_INPUT_create_catalog_function_TestC2Ev
FN:31,_ZN41CORRECT_INPUT_take_the_book_function_Test8TestBodyEv
FN:31,_ZN41CORRECT_INPUT_take_the_book_function_TestC2Ev
FN:48,_ZN36CORRECT_INPUT_zero_person_taken_TestC2Ev
FN:48,_ZN36CORRECT_INPUT_zero_person_taken_Test8TestBodyEv
FN:66,_ZN44INCORRECT_INPUT_create_catalog_function_TestC2Ev
FN:66,_ZN44INCORRECT_INPUT_create_catalog_function_Test8TestBodyEv
FN:76,_ZN47INCORRECT_INPUT_take_the_non_existent_book_Test8TestBodyEv
FN:76,_ZN47INCORRECT_INPUT_take_the_non_existent_book_TestC2Ev
FN:93,_ZN50INCORRECT_INPUT_take_overlimit_copies_of_book_TestC2Ev
FN:93,_ZN50INCORRECT_INPUT_take_overlimit_copies_of_book_Test8TestBodyEv
FN:110,_ZN48INCORRECT_INPUT_take_negative_num_of_copies_Test8TestBodyEv
FN:110,_ZN48INCORRECT_INPUT_take_negative_num_of_copies_TestC2Ev
FN:127,_ZN39COMPARISON_create_catalog_function_TestC2Ev
FN:127,_ZN39COMPARISON_create_catalog_function_Test8TestBodyEv
FN:194,_ZN38COMPARISON_take_the_book_function_TestC2Ev
FN:194,_ZN38COMPARISON_take_the_book_function_Test8TestBodyEv
FN:276,main
FNDA:2,_ZN37BAD_INPUT_null_ptr_take_the_book_TestC2Ev
FNDA:2,_ZN47INCORRECT_INPUT_take_the_non_existent_book_TestC2Ev
FNDA:2,_ZN39COMPARISON_create_catalog_function_TestC2Ev
FNDA:2,_ZN36CORRECT_INPUT_zero_person_taken_TestC2Ev
FNDA:2,_ZN36CORRECT_INPUT_zero_person_taken_Test8TestBodyEv
FNDA:2,_ZN38COMPARISON_take_the_book_function_TestC2Ev
FNDA:2,_ZN48INCORRECT_INPUT_take_negative_num_of_copies_Test8TestBodyEv
FNDA:2,_ZN47INCORRECT_INPUT_take_the_non_existent_book_Test8TestBodyEv
FNDA:2,_ZN44INCORRECT_INPUT_create_catalog_function_TestC2Ev
FNDA:2,_ZN32BAD_INPUT_null_ptr_creation_TestC2Ev
FNDA:2,_ZN41CORRECT_INPUT_take_the_book_function_Test8TestBodyEv
FNDA:2,_ZN44INCORRECT_INPUT_create_catalog_function_Test8TestBodyEv
FNDA:2,_ZN42CORRECT_INPUT_create_catalog_function_Test8TestBodyEv
FNDA:2,_ZN37BAD_INPUT_null_ptr_take_the_book_Test8TestBodyEv
FNDA:2,_ZN32BAD_INPUT_null_ptr_creation_Test8TestBodyEv
FNDA:2,_ZN39COMPARISON_create_catalog_function_Test8TestBodyEv
FNDA:2,_ZN48INCORRECT_INPUT_take_negative_num_of_copies_TestC2Ev
FNDA:2,_ZN42CORRECT_INPUT_create_catalog_function_TestC2Ev
FNDA:2,main
FNDA:2,_ZN50INCORRECT_INPUT_take_overlimit_copies_of_book_TestC2Ev
FNDA:2,_ZN50INCORRECT_INPUT_take_overlimit_copies_of_book_Test8TestBodyEv
FNDA:2,_ZN41CORRECT_INPUT_take_the_book_function_TestC2Ev
FNDA:2,_ZN38COMPARISON_take_the_book_function_Test8TestBodyEv
FNF:23
FNH:23
DA:11,4
DA:12,2
DA:13,2
DA:14,2
DA:16,4
DA:17,2
DA:18,2
DA:19,2
DA:21,4
DA:22,2
DA:24,2
DA:25,2
DA:26,2
DA:27,2
DA:28,2
DA:29,2
DA:31,4
DA:32,2
DA:34,2
DA:35,2
DA:36,2
DA:37,2
DA:40,2
DA:41,2
DA:42,2
DA:43,2
DA:45,2
DA:46,2
DA:48,4
DA:49,2
DA:51,2
DA:52,2
DA:53,2
DA:54,2
DA:57,2
DA:58,2
DA:59,2
DA:60,2
DA:62,2
DA:63,2
DA:66,4
DA:67,2
DA:69,2
DA:70,2
DA:71,2
DA:72,2
DA:73,2
DA:74,2
DA:76,4
DA:77,2
DA:79,2
DA:80,2
DA:81,2
DA:82,2
DA:85,2
DA:86,2
DA:87,2
DA:88,2
DA:90,2
DA:91,2
DA:93,4
DA:94,2
DA:96,2
DA:97,2
DA:98,2
DA:99,2
DA:102,2
DA:103,2
DA:104,2
DA:105,2
DA:107,2
DA:108,2
DA:110,4
DA:111,2
DA:113,2
DA:114,2
DA:115,2
DA:116,2
DA:119,2
DA:120,2
DA:121,2
DA:122,2
DA:124,2
DA:125,2
DA:127,4
DA:128,2
DA:139,2
DA:150,2
DA:161,2
DA:165,2
DA:166,2
DA:167,2
DA:168,2
DA:171,2
DA:174,2
DA:175,2
DA:176,2
DA:177,2
DA:179,2
DA:180,8
DA:182,6
DA:183,6
DA:184,6
DA:185,6
DA:186,6
DA:187,6
DA:188,6
DA:189,6
DA:191,2
DA:192,2
DA:194,4
DA:195,2
DA:199,2
DA:202,2
DA:211,2
DA:213,2
DA:224,2
DA:233,2
DA:235,2
DA:239,2
DA:240,2
DA:241,2
DA:242,2
DA:244,2
DA:246,2
DA:247,2
DA:248,2
DA:249,2
DA:252,2
DA:253,2
DA:254,2
DA:255,2
DA:257,2
DA:258,8
DA:260,6
DA:261,6
DA:262,6
DA:264,12
DA:266,6
DA:267,6
DA:268,6
DA:271,2
DA:272,2
DA:276,2
DA:277,2
DA:278,2
LF:146
LH:146
end_of_record
TN:
SF:/home/tater/Technopark/Sem_1/C_Homeworks/unit_test/input_test.cpp
FN:10,_ZN36FUNCTIONAL_TEST_INPUT_CHAR_TEST_TestC2Ev
FN:10,_ZN36FUNCTIONAL_TEST_INPUT_CHAR_TEST_Test8TestBodyEv
FN:24,_ZN38FUNCTIONAL_TEST_INPUT_STRING_TEST_Test8TestBodyEv
FN:24,_ZN38FUNCTIONAL_TEST_INPUT_STRING_TEST_TestC2Ev
FN:39,_ZN39FUNCTIONAL_TEST_INPUT_STRINGS_TEST_Test8TestBodyEv
FN:39,_ZN39FUNCTIONAL_TEST_INPUT_STRINGS_TEST_TestC2Ev
FN:58,_ZN44FUNCTIONAL_TEST_INPUT_EMPTY_STRING_TEST_TestC2Ev
FN:58,_ZN44FUNCTIONAL_TEST_INPUT_EMPTY_STRING_TEST_Test8TestBodyEv
FN:74,_ZN38FUNCTIONAL_TEST_INPUT_NUMBER_TEST_Test8TestBodyEv
FN:74,_ZN38FUNCTIONAL_TEST_INPUT_NUMBER_TEST_TestC2Ev
FN:88,main
FNDA:2,_ZN38FUNCTIONAL_TEST_INPUT_STRING_TEST_TestC2Ev
FNDA:2,_ZN39FUNCTIONAL_TEST_INPUT_STRINGS_TEST_Test8TestBodyEv
FNDA:2,_ZN38FUNCTIONAL_TEST_INPUT_NUMBER_TEST_Test8TestBodyEv
FNDA:2,main
FNDA:2,_ZN38FUNCTIONAL_TEST_INPUT_STRING_TEST_Test8TestBodyEv
FNDA:2,_ZN44FUNCTIONAL_TEST_INPUT_EMPTY_STRING_TEST_Test8TestBodyEv
FNDA:2,_ZN44FUNCTIONAL_TEST_INPUT_EMPTY_STRING_TEST_TestC2Ev
FNDA:2,_ZN39FUNCTIONAL_TEST_INPUT_STRINGS_TEST_TestC2Ev
FNDA:2,_ZN36FUNCTIONAL_TEST_INPUT_CHAR_TEST_Test8TestBodyEv
FNDA:2,_ZN36FUNCTIONAL_TEST_INPUT_CHAR_TEST_TestC2Ev
FNDA:2,_ZN38FUNCTIONAL_TEST_INPUT_NUMBER_TEST_TestC2Ev
FNF:11
FNH:11
DA:10,4
DA:11,4
DA:12,2
DA:13,2
DA:14,2
DA:16,2
DA:17,2
DA:18,2
DA:20,2
DA:21,2
DA:22,2
DA:24,4
DA:25,4
DA:26,2
DA:27,2
DA:28,2
DA:30,2
DA:31,2
DA:32,2
DA:34,2
DA:35,2
DA:36,2
DA:37,2
DA:39,4
DA:40,4
DA:41,2
DA:42,2
DA:43,2
DA:45,2
DA:46,2
DA:47,2
DA:48,2
DA:49,2
DA:50,2
DA:52,2
DA:53,2
DA:54,2
DA:55,2
DA:58,4
DA:59,4
DA:60,2
DA:61,2
DA:62,2
DA:64,2
DA:65,2
DA:66,2
DA:68,2
DA:69,2
DA:70,2
DA:71,2
DA:74,4
DA:75,4
DA:76,2
DA:77,2
DA:78,2
DA:80,2
DA:81,2
DA:82,2
DA:84,2
DA:85,2
DA:86,2
DA:88,2
DA:89,2
DA:90,2
LF:64
LH:64
end_of_record
